target datalayout = "e-m:e-p270:32:32-p271:32:32-p272:64:64-i64:64-i128:128-f80:128-n8:16:32:64-S128"
target triple = "x86_64-pc-linux-gnu"

%"class.llvm::FoldingSetBase::Node" = type { ptr }
%"class.(anonymous namespace)::EquivalenceClass" = type { %"class.llvm::FoldingSetBase::Node", i64 }
%"struct.std::equal_to" = type { i8 }
%"struct.std::less" = type { i8 }
%"class.llvm::ImmutableSet.639" = type { %"class.llvm::IntrusiveRefCntPtr.640" }
%"class.llvm::IntrusiveRefCntPtr.640" = type { ptr }
%"class.llvm::ImutAVLTree.636" = type { ptr, ptr, ptr, ptr, ptr, i32, %"struct.std::pair.637", i32, i32 }
%"struct.std::pair.637" = type { %"class.(anonymous namespace)::EquivalenceClass", %"class.llvm::ImmutableSet.639" }

; Function Attrs: mustprogress nounwind uwtable
define internal noundef zeroext i1 @_ZNK12_GLOBAL__N_116EquivalenceClassltERKS0_(ptr noundef nonnull align 8 dereferenceable(16) %0, ptr noundef nonnull align 8 dereferenceable(16) %1) #1 align 2 {
  %3 = alloca ptr, align 8
  %4 = alloca ptr, align 8
  store ptr %0, ptr %3, align 8
  store ptr %1, ptr %4, align 8
  %5 = load ptr, ptr %3, align 8
  %6 = getelementptr inbounds nuw %"class.(anonymous namespace)::EquivalenceClass", ptr %5, i32 0, i32 1
  %7 = load i64, ptr %6, align 8
  %8 = load ptr, ptr %4, align 8
  %9 = getelementptr inbounds nuw %"class.(anonymous namespace)::EquivalenceClass", ptr %8, i32 0, i32 1
  %10 = load i64, ptr %9, align 8
  %11 = icmp ult i64 %7, %10
  ret i1 %11
}

; Function Attrs: mustprogress nounwind uwtable
define internal noundef zeroext i1 @_ZNK12_GLOBAL__N_116EquivalenceClasseqERKS0_(ptr noundef nonnull align 8 dereferenceable(16) %0, ptr noundef nonnull align 8 dereferenceable(16) %1) #1 align 2 {
  %3 = alloca ptr, align 8
  %4 = alloca ptr, align 8
  store ptr %0, ptr %3, align 8
  store ptr %1, ptr %4, align 8
  %5 = load ptr, ptr %3, align 8
  %6 = getelementptr inbounds nuw %"class.(anonymous namespace)::EquivalenceClass", ptr %5, i32 0, i32 1
  %7 = load i64, ptr %6, align 8
  %8 = load ptr, ptr %4, align 8
  %9 = getelementptr inbounds nuw %"class.(anonymous namespace)::EquivalenceClass", ptr %8, i32 0, i32 1
  %10 = load i64, ptr %9, align 8
  %11 = icmp eq i64 %7, %10
  ret i1 %11
}

; Function Attrs: mustprogress nounwind uwtable
define internal noundef zeroext i1 @_ZNKSt4lessIKN12_GLOBAL__N_116EquivalenceClassEEclERS2_S4_(ptr noundef nonnull align 1 dereferenceable(1) %0, ptr noundef nonnull align 8 dereferenceable(16) %1, ptr noundef nonnull align 8 dereferenceable(16) %2) #1 align 2 {
  %4 = alloca ptr, align 8
  %5 = alloca ptr, align 8
  %6 = alloca ptr, align 8
  store ptr %0, ptr %4, align 8
  store ptr %1, ptr %5, align 8
  store ptr %2, ptr %6, align 8
  %7 = load ptr, ptr %5, align 8
  %8 = load ptr, ptr %6, align 8
  %9 = call noundef zeroext i1 @_ZNK12_GLOBAL__N_116EquivalenceClassltERKS0_(ptr noundef nonnull align 8 dereferenceable(16) %7, ptr noundef nonnull align 8 dereferenceable(16) %8)
  ret i1 %9
}

; Function Attrs: mustprogress nounwind uwtable
define internal noundef zeroext i1 @_ZNKSt8equal_toIKN12_GLOBAL__N_116EquivalenceClassEEclERS2_S4_(ptr noundef nonnull align 1 dereferenceable(1) %0, ptr noundef nonnull align 8 dereferenceable(16) %1, ptr noundef nonnull align 8 dereferenceable(16) %2) #1 align 2 {
  %4 = alloca ptr, align 8
  %5 = alloca ptr, align 8
  %6 = alloca ptr, align 8
  store ptr %0, ptr %4, align 8
  store ptr %1, ptr %5, align 8
  store ptr %2, ptr %6, align 8
  %7 = load ptr, ptr %5, align 8
  %8 = load ptr, ptr %6, align 8
  %9 = call noundef zeroext i1 @_ZNK12_GLOBAL__N_116EquivalenceClasseqERKS0_(ptr noundef nonnull align 8 dereferenceable(16) %7, ptr noundef nonnull align 8 dereferenceable(16) %8)
  ret i1 %9
}

; Function Attrs: mustprogress nounwind uwtable
define internal noundef zeroext i1 @_ZN4llvm17ImutContainerInfoIN12_GLOBAL__N_116EquivalenceClassEE6isLessERKS2_S5_(ptr noundef nonnull align 8 dereferenceable(16) %0, ptr noundef nonnull align 8 dereferenceable(16) %1) #1 align 2 {
  %3 = alloca ptr, align 8
  %4 = alloca ptr, align 8
  %5 = alloca %"struct.std::less", align 1
  store ptr %0, ptr %3, align 8
  store ptr %1, ptr %4, align 8
  %6 = load ptr, ptr %3, align 8
  %7 = load ptr, ptr %4, align 8
  %8 = call noundef zeroext i1 @_ZNKSt4lessIKN12_GLOBAL__N_116EquivalenceClassEEclERS2_S4_(ptr noundef nonnull align 1 dereferenceable(1) %5, ptr noundef nonnull align 8 dereferenceable(16) %6, ptr noundef nonnull align 8 dereferenceable(16) %7)
  ret i1 %8
}

; Function Attrs: mustprogress nounwind uwtable
define internal noundef ptr @_ZNK4llvm11ImutAVLTreeINS_16ImutKeyValueInfoIN12_GLOBAL__N_116EquivalenceClassENS_12ImmutableSetIS3_NS_17ImutContainerInfoIS3_EEEEEEE8getRightEv(ptr noundef nonnull align 8 dereferenceable(80) %0) #1 align 2 {
  %2 = alloca ptr, align 8
  store ptr %0, ptr %2, align 8
  %3 = load ptr, ptr %2, align 8
  %4 = getelementptr inbounds nuw %"class.llvm::ImutAVLTree.636", ptr %3, i32 0, i32 2
  %5 = load ptr, ptr %4, align 8
  ret ptr %5
}

; Function Attrs: mustprogress nounwind uwtable
define internal noundef ptr @_ZNK4llvm11ImutAVLTreeINS_16ImutKeyValueInfoIN12_GLOBAL__N_116EquivalenceClassENS_12ImmutableSetIS3_NS_17ImutContainerInfoIS3_EEEEEEE7getLeftEv(ptr noundef nonnull align 8 dereferenceable(80) %0) #1 align 2 {
  %2 = alloca ptr, align 8
  store ptr %0, ptr %2, align 8
  %3 = load ptr, ptr %2, align 8
  %4 = getelementptr inbounds nuw %"class.llvm::ImutAVLTree.636", ptr %3, i32 0, i32 1
  %5 = load ptr, ptr %4, align 8
  ret ptr %5
}

; Function Attrs: mustprogress nounwind uwtable
define internal noundef zeroext i1 @_ZN4llvm17ImutContainerInfoIN12_GLOBAL__N_116EquivalenceClassEE7isEqualERKS2_S5_(ptr noundef nonnull align 8 dereferenceable(16) %0, ptr noundef nonnull align 8 dereferenceable(16) %1) #1 align 2 {
  %3 = alloca ptr, align 8
  %4 = alloca ptr, align 8
  %5 = alloca %"struct.std::equal_to", align 1
  store ptr %0, ptr %3, align 8
  store ptr %1, ptr %4, align 8
  %6 = load ptr, ptr %3, align 8
  %7 = load ptr, ptr %4, align 8
  %8 = call noundef zeroext i1 @_ZNKSt8equal_toIKN12_GLOBAL__N_116EquivalenceClassEEclERS2_S4_(ptr noundef nonnull align 1 dereferenceable(1) %5, ptr noundef nonnull align 8 dereferenceable(16) %6, ptr noundef nonnull align 8 dereferenceable(16) %7)
  ret i1 %8
}

; Function Attrs: mustprogress nounwind uwtable
define internal noundef zeroext i1 @_ZN4llvm16ImutKeyValueInfoIN12_GLOBAL__N_116EquivalenceClassENS_12ImmutableSetIS2_NS_17ImutContainerInfoIS2_EEEEE6isLessERKS2_S9_(ptr noundef nonnull align 8 dereferenceable(16) %0, ptr noundef nonnull align 8 dereferenceable(16) %1) #1 align 2 {
  %3 = alloca ptr, align 8
  %4 = alloca ptr, align 8
  store ptr %0, ptr %3, align 8
  store ptr %1, ptr %4, align 8
  %5 = load ptr, ptr %3, align 8
  %6 = load ptr, ptr %4, align 8
  %7 = call noundef zeroext i1 @_ZN4llvm17ImutContainerInfoIN12_GLOBAL__N_116EquivalenceClassEE6isLessERKS2_S5_(ptr noundef nonnull align 8 dereferenceable(16) %5, ptr noundef nonnull align 8 dereferenceable(16) %6)
  ret i1 %7
}

; Function Attrs: mustprogress nounwind uwtable
define internal noundef ptr @_ZN4llvm14ImutAVLFactoryINS_16ImutKeyValueInfoIN12_GLOBAL__N_116EquivalenceClassENS_12ImmutableSetIS3_NS_17ImutContainerInfoIS3_EEEEEEE12combineTreesEPNS_11ImutAVLTreeIS8_EESC_(ptr noundef nonnull align 8 dereferenceable(80) %0, ptr noundef %1, ptr noundef %2) #1 align 2 {
  %4 = alloca ptr, align 8
  %5 = alloca ptr, align 8
  %6 = alloca ptr, align 8
  %7 = alloca ptr, align 8
  %8 = alloca ptr, align 8
  %9 = alloca ptr, align 8
  store ptr %0, ptr %5, align 8
  store ptr %1, ptr %6, align 8
  store ptr %2, ptr %7, align 8
  %10 = load ptr, ptr %5, align 8
  %11 = load ptr, ptr %6, align 8
  %12 = call noundef zeroext i1 @_ZNK4llvm14ImutAVLFactoryINS_16ImutKeyValueInfoIN12_GLOBAL__N_116EquivalenceClassENS_12ImmutableSetIS3_NS_17ImutContainerInfoIS3_EEEEEEE7isEmptyEPNS_11ImutAVLTreeIS8_EE(ptr noundef nonnull align 8 dereferenceable(80) %10, ptr noundef %11)
  br i1 %12, label %13, label %15

13:                                               ; preds = %3
  %14 = load ptr, ptr %7, align 8
  store ptr %14, ptr %4, align 8
  br label %28

15:                                               ; preds = %3
  %16 = load ptr, ptr %7, align 8
  %17 = call noundef zeroext i1 @_ZNK4llvm14ImutAVLFactoryINS_16ImutKeyValueInfoIN12_GLOBAL__N_116EquivalenceClassENS_12ImmutableSetIS3_NS_17ImutContainerInfoIS3_EEEEEEE7isEmptyEPNS_11ImutAVLTreeIS8_EE(ptr noundef nonnull align 8 dereferenceable(80) %10, ptr noundef %16)
  br i1 %17, label %18, label %20

18:                                               ; preds = %15
  %19 = load ptr, ptr %6, align 8
  store ptr %19, ptr %4, align 8
  br label %28

20:                                               ; preds = %15
  %21 = load ptr, ptr %7, align 8
  %22 = call noundef ptr @_ZN4llvm14ImutAVLFactoryINS_16ImutKeyValueInfoIN12_GLOBAL__N_116EquivalenceClassENS_12ImmutableSetIS3_NS_17ImutContainerInfoIS3_EEEEEEE16removeMinBindingEPNS_11ImutAVLTreeIS8_EERSC_(ptr noundef nonnull align 8 dereferenceable(80) %10, ptr noundef %21, ptr noundef nonnull align 8 dereferenceable(8) %8)
  store ptr %22, ptr %9, align 8
  %23 = load ptr, ptr %6, align 8
  %24 = load ptr, ptr %8, align 8
  %25 = call noundef nonnull align 8 dereferenceable(24) ptr @_ZNK4llvm14ImutAVLFactoryINS_16ImutKeyValueInfoIN12_GLOBAL__N_116EquivalenceClassENS_12ImmutableSetIS3_NS_17ImutContainerInfoIS3_EEEEEEE8getValueEPNS_11ImutAVLTreeIS8_EE(ptr noundef nonnull align 8 dereferenceable(80) %10, ptr noundef %24)
  %26 = load ptr, ptr %9, align 8
  %27 = call noundef ptr @_ZN4llvm14ImutAVLFactoryINS_16ImutKeyValueInfoIN12_GLOBAL__N_116EquivalenceClassENS_12ImmutableSetIS3_NS_17ImutContainerInfoIS3_EEEEEEE11balanceTreeEPNS_11ImutAVLTreeIS8_EERKSt4pairIS3_S7_ESC_(ptr noundef nonnull align 8 dereferenceable(80) %10, ptr noundef %23, ptr noundef nonnull align 8 dereferenceable(24) %25, ptr noundef %26)
  store ptr %27, ptr %4, align 8
  br label %28

28:                                               ; preds = %20, %18, %13
  %29 = load ptr, ptr %4, align 8
  ret ptr %29
}

; Function Attrs: mustprogress nounwind uwtable
define internal noundef ptr @_ZNK4llvm14ImutAVLFactoryINS_16ImutKeyValueInfoIN12_GLOBAL__N_116EquivalenceClassENS_12ImmutableSetIS3_NS_17ImutContainerInfoIS3_EEEEEEE8getRightEPNS_11ImutAVLTreeIS8_EE(ptr noundef nonnull align 8 dereferenceable(80) %0, ptr noundef %1) #1 align 2 {
  %3 = alloca ptr, align 8
  %4 = alloca ptr, align 8
  store ptr %0, ptr %3, align 8
  store ptr %1, ptr %4, align 8
  %5 = load ptr, ptr %4, align 8
  %6 = call noundef ptr @_ZNK4llvm11ImutAVLTreeINS_16ImutKeyValueInfoIN12_GLOBAL__N_116EquivalenceClassENS_12ImmutableSetIS3_NS_17ImutContainerInfoIS3_EEEEEEE8getRightEv(ptr noundef nonnull align 8 dereferenceable(80) %5)
  ret ptr %6
}

; Function Attrs: mustprogress nounwind uwtable
define internal noundef ptr @_ZNK4llvm14ImutAVLFactoryINS_16ImutKeyValueInfoIN12_GLOBAL__N_116EquivalenceClassENS_12ImmutableSetIS3_NS_17ImutContainerInfoIS3_EEEEEEE7getLeftEPNS_11ImutAVLTreeIS8_EE(ptr noundef nonnull align 8 dereferenceable(80) %0, ptr noundef %1) #1 align 2 {
  %3 = alloca ptr, align 8
  %4 = alloca ptr, align 8
  store ptr %0, ptr %3, align 8
  store ptr %1, ptr %4, align 8
  %5 = load ptr, ptr %4, align 8
  %6 = call noundef ptr @_ZNK4llvm11ImutAVLTreeINS_16ImutKeyValueInfoIN12_GLOBAL__N_116EquivalenceClassENS_12ImmutableSetIS3_NS_17ImutContainerInfoIS3_EEEEEEE7getLeftEv(ptr noundef nonnull align 8 dereferenceable(80) %5)
  ret ptr %6
}

; Function Attrs: mustprogress nounwind uwtable
define internal noundef zeroext i1 @_ZN4llvm16ImutKeyValueInfoIN12_GLOBAL__N_116EquivalenceClassENS_12ImmutableSetIS2_NS_17ImutContainerInfoIS2_EEEEE7isEqualERKS2_S9_(ptr noundef nonnull align 8 dereferenceable(16) %0, ptr noundef nonnull align 8 dereferenceable(16) %1) #1 align 2 {
  %3 = alloca ptr, align 8
  %4 = alloca ptr, align 8
  store ptr %0, ptr %3, align 8
  store ptr %1, ptr %4, align 8
  %5 = load ptr, ptr %3, align 8
  %6 = load ptr, ptr %4, align 8
  %7 = call noundef zeroext i1 @_ZN4llvm17ImutContainerInfoIN12_GLOBAL__N_116EquivalenceClassEE7isEqualERKS2_S5_(ptr noundef nonnull align 8 dereferenceable(16) %5, ptr noundef nonnull align 8 dereferenceable(16) %6)
  ret i1 %7
}

; Function Attrs: mustprogress nounwind uwtable
define internal noundef nonnull align 8 dereferenceable(16) ptr @_ZN4llvm16ImutKeyValueInfoIN12_GLOBAL__N_116EquivalenceClassENS_12ImmutableSetIS2_NS_17ImutContainerInfoIS2_EEEEE10KeyOfValueERKSt4pairIS2_S6_E(ptr noundef nonnull align 8 dereferenceable(24) %0) #1 align 2 {
  %2 = alloca ptr, align 8
  store ptr %0, ptr %2, align 8
  %3 = load ptr, ptr %2, align 8
  %4 = getelementptr inbounds nuw %"struct.std::pair.637", ptr %3, i32 0, i32 0
  ret ptr %4
}

; Function Attrs: mustprogress nounwind uwtable
define internal noundef nonnull align 8 dereferenceable(24) ptr @_ZNK4llvm14ImutAVLFactoryINS_16ImutKeyValueInfoIN12_GLOBAL__N_116EquivalenceClassENS_12ImmutableSetIS3_NS_17ImutContainerInfoIS3_EEEEEEE8getValueEPNS_11ImutAVLTreeIS8_EE(ptr noundef nonnull align 8 dereferenceable(80) %0, ptr noundef %1) #1 align 2 {
  %3 = alloca ptr, align 8
  %4 = alloca ptr, align 8
  store ptr %0, ptr %3, align 8
  store ptr %1, ptr %4, align 8
  %5 = load ptr, ptr %4, align 8
  %6 = getelementptr inbounds nuw %"class.llvm::ImutAVLTree.636", ptr %5, i32 0, i32 6
  ret ptr %6
}

; Function Attrs: mustprogress nounwind uwtable
define internal noundef zeroext i1 @_ZNK4llvm14ImutAVLFactoryINS_16ImutKeyValueInfoIN12_GLOBAL__N_116EquivalenceClassENS_12ImmutableSetIS3_NS_17ImutContainerInfoIS3_EEEEEEE7isEmptyEPNS_11ImutAVLTreeIS8_EE(ptr noundef nonnull align 8 dereferenceable(80) %0, ptr noundef %1) #1 align 2 {
  %3 = alloca ptr, align 8
  %4 = alloca ptr, align 8
  store ptr %0, ptr %3, align 8
  store ptr %1, ptr %4, align 8
  %5 = load ptr, ptr %4, align 8
  %6 = icmp ne ptr %5, null
  %7 = xor i1 %6, true
  ret i1 %7
}

; Function Attrs: mustprogress nounwind uwtable
define internal noundef ptr @_ZN4llvm14ImutAVLFactoryINS_16ImutKeyValueInfoIN12_GLOBAL__N_116EquivalenceClassENS_12ImmutableSetIS3_NS_17ImutContainerInfoIS3_EEEEEEE15remove_internalERKS3_PNS_11ImutAVLTreeIS8_EE(ptr noundef nonnull align 8 dereferenceable(80) %0, ptr noundef nonnull align 8 dereferenceable(16) %1, ptr noundef %2) #1 align 2 {
  %4 = alloca ptr, align 8
  %5 = alloca ptr, align 8
  %6 = alloca ptr, align 8
  %7 = alloca ptr, align 8
  %8 = alloca ptr, align 8
  store ptr %0, ptr %5, align 8
  store ptr %1, ptr %6, align 8
  store ptr %2, ptr %7, align 8
  %9 = load ptr, ptr %5, align 8
  %10 = load ptr, ptr %7, align 8
  %11 = call noundef zeroext i1 @_ZNK4llvm14ImutAVLFactoryINS_16ImutKeyValueInfoIN12_GLOBAL__N_116EquivalenceClassENS_12ImmutableSetIS3_NS_17ImutContainerInfoIS3_EEEEEEE7isEmptyEPNS_11ImutAVLTreeIS8_EE(ptr noundef nonnull align 8 dereferenceable(80) %9, ptr noundef %10)
  br i1 %11, label %12, label %14

12:                                               ; preds = %3
  %13 = load ptr, ptr %7, align 8
  store ptr %13, ptr %4, align 8
  br label %51

14:                                               ; preds = %3
  %15 = load ptr, ptr %7, align 8
  %16 = call noundef nonnull align 8 dereferenceable(24) ptr @_ZNK4llvm14ImutAVLFactoryINS_16ImutKeyValueInfoIN12_GLOBAL__N_116EquivalenceClassENS_12ImmutableSetIS3_NS_17ImutContainerInfoIS3_EEEEEEE8getValueEPNS_11ImutAVLTreeIS8_EE(ptr noundef nonnull align 8 dereferenceable(80) %9, ptr noundef %15)
  %17 = call noundef nonnull align 8 dereferenceable(16) ptr @_ZN4llvm16ImutKeyValueInfoIN12_GLOBAL__N_116EquivalenceClassENS_12ImmutableSetIS2_NS_17ImutContainerInfoIS2_EEEEE10KeyOfValueERKSt4pairIS2_S6_E(ptr noundef nonnull align 8 dereferenceable(24) %16)
  store ptr %17, ptr %8, align 8
  %18 = load ptr, ptr %6, align 8
  %19 = load ptr, ptr %8, align 8
  %20 = call noundef zeroext i1 @_ZN4llvm16ImutKeyValueInfoIN12_GLOBAL__N_116EquivalenceClassENS_12ImmutableSetIS2_NS_17ImutContainerInfoIS2_EEEEE7isEqualERKS2_S9_(ptr noundef nonnull align 8 dereferenceable(16) %18, ptr noundef nonnull align 8 dereferenceable(16) %19)
  br i1 %20, label %21, label %27

21:                                               ; preds = %14
  %22 = load ptr, ptr %7, align 8
  %23 = call noundef ptr @_ZNK4llvm14ImutAVLFactoryINS_16ImutKeyValueInfoIN12_GLOBAL__N_116EquivalenceClassENS_12ImmutableSetIS3_NS_17ImutContainerInfoIS3_EEEEEEE7getLeftEPNS_11ImutAVLTreeIS8_EE(ptr noundef nonnull align 8 dereferenceable(80) %9, ptr noundef %22)
  %24 = load ptr, ptr %7, align 8
  %25 = call noundef ptr @_ZNK4llvm14ImutAVLFactoryINS_16ImutKeyValueInfoIN12_GLOBAL__N_116EquivalenceClassENS_12ImmutableSetIS3_NS_17ImutContainerInfoIS3_EEEEEEE8getRightEPNS_11ImutAVLTreeIS8_EE(ptr noundef nonnull align 8 dereferenceable(80) %9, ptr noundef %24)
  %26 = call noundef ptr @_ZN4llvm14ImutAVLFactoryINS_16ImutKeyValueInfoIN12_GLOBAL__N_116EquivalenceClassENS_12ImmutableSetIS3_NS_17ImutContainerInfoIS3_EEEEEEE12combineTreesEPNS_11ImutAVLTreeIS8_EESC_(ptr noundef nonnull align 8 dereferenceable(80) %9, ptr noundef %23, ptr noundef %25)
  store ptr %26, ptr %4, align 8
  br label %51

27:                                               ; preds = %14
  %28 = load ptr, ptr %6, align 8
  %29 = load ptr, ptr %8, align 8
  %30 = call noundef zeroext i1 @_ZN4llvm16ImutKeyValueInfoIN12_GLOBAL__N_116EquivalenceClassENS_12ImmutableSetIS2_NS_17ImutContainerInfoIS2_EEEEE6isLessERKS2_S9_(ptr noundef nonnull align 8 dereferenceable(16) %28, ptr noundef nonnull align 8 dereferenceable(16) %29)
  br i1 %30, label %31, label %41

31:                                               ; preds = %27
  %32 = load ptr, ptr %6, align 8
  %33 = load ptr, ptr %7, align 8
  %34 = call noundef ptr @_ZNK4llvm14ImutAVLFactoryINS_16ImutKeyValueInfoIN12_GLOBAL__N_116EquivalenceClassENS_12ImmutableSetIS3_NS_17ImutContainerInfoIS3_EEEEEEE7getLeftEPNS_11ImutAVLTreeIS8_EE(ptr noundef nonnull align 8 dereferenceable(80) %9, ptr noundef %33)
  %35 = call noundef ptr @_ZN4llvm14ImutAVLFactoryINS_16ImutKeyValueInfoIN12_GLOBAL__N_116EquivalenceClassENS_12ImmutableSetIS3_NS_17ImutContainerInfoIS3_EEEEEEE15remove_internalERKS3_PNS_11ImutAVLTreeIS8_EE(ptr noundef nonnull align 8 dereferenceable(80) %9, ptr noundef nonnull align 8 dereferenceable(16) %32, ptr noundef %34)
  %36 = load ptr, ptr %7, align 8
  %37 = call noundef nonnull align 8 dereferenceable(24) ptr @_ZNK4llvm14ImutAVLFactoryINS_16ImutKeyValueInfoIN12_GLOBAL__N_116EquivalenceClassENS_12ImmutableSetIS3_NS_17ImutContainerInfoIS3_EEEEEEE8getValueEPNS_11ImutAVLTreeIS8_EE(ptr noundef nonnull align 8 dereferenceable(80) %9, ptr noundef %36)
  %38 = load ptr, ptr %7, align 8
  %39 = call noundef ptr @_ZNK4llvm14ImutAVLFactoryINS_16ImutKeyValueInfoIN12_GLOBAL__N_116EquivalenceClassENS_12ImmutableSetIS3_NS_17ImutContainerInfoIS3_EEEEEEE8getRightEPNS_11ImutAVLTreeIS8_EE(ptr noundef nonnull align 8 dereferenceable(80) %9, ptr noundef %38)
  %40 = call noundef ptr @_ZN4llvm14ImutAVLFactoryINS_16ImutKeyValueInfoIN12_GLOBAL__N_116EquivalenceClassENS_12ImmutableSetIS3_NS_17ImutContainerInfoIS3_EEEEEEE11balanceTreeEPNS_11ImutAVLTreeIS8_EERKSt4pairIS3_S7_ESC_(ptr noundef nonnull align 8 dereferenceable(80) %9, ptr noundef %35, ptr noundef nonnull align 8 dereferenceable(24) %37, ptr noundef %39)
  store ptr %40, ptr %4, align 8
  br label %51

41:                                               ; preds = %27
  %42 = load ptr, ptr %7, align 8
  %43 = call noundef ptr @_ZNK4llvm14ImutAVLFactoryINS_16ImutKeyValueInfoIN12_GLOBAL__N_116EquivalenceClassENS_12ImmutableSetIS3_NS_17ImutContainerInfoIS3_EEEEEEE7getLeftEPNS_11ImutAVLTreeIS8_EE(ptr noundef nonnull align 8 dereferenceable(80) %9, ptr noundef %42)
  %44 = load ptr, ptr %7, align 8
  %45 = call noundef nonnull align 8 dereferenceable(24) ptr @_ZNK4llvm14ImutAVLFactoryINS_16ImutKeyValueInfoIN12_GLOBAL__N_116EquivalenceClassENS_12ImmutableSetIS3_NS_17ImutContainerInfoIS3_EEEEEEE8getValueEPNS_11ImutAVLTreeIS8_EE(ptr noundef nonnull align 8 dereferenceable(80) %9, ptr noundef %44)
  %46 = load ptr, ptr %6, align 8
  %47 = load ptr, ptr %7, align 8
  %48 = call noundef ptr @_ZNK4llvm14ImutAVLFactoryINS_16ImutKeyValueInfoIN12_GLOBAL__N_116EquivalenceClassENS_12ImmutableSetIS3_NS_17ImutContainerInfoIS3_EEEEEEE8getRightEPNS_11ImutAVLTreeIS8_EE(ptr noundef nonnull align 8 dereferenceable(80) %9, ptr noundef %47)
  %49 = call noundef ptr @_ZN4llvm14ImutAVLFactoryINS_16ImutKeyValueInfoIN12_GLOBAL__N_116EquivalenceClassENS_12ImmutableSetIS3_NS_17ImutContainerInfoIS3_EEEEEEE15remove_internalERKS3_PNS_11ImutAVLTreeIS8_EE(ptr noundef nonnull align 8 dereferenceable(80) %9, ptr noundef nonnull align 8 dereferenceable(16) %46, ptr noundef %48)
  %50 = call noundef ptr @_ZN4llvm14ImutAVLFactoryINS_16ImutKeyValueInfoIN12_GLOBAL__N_116EquivalenceClassENS_12ImmutableSetIS3_NS_17ImutContainerInfoIS3_EEEEEEE11balanceTreeEPNS_11ImutAVLTreeIS8_EERKSt4pairIS3_S7_ESC_(ptr noundef nonnull align 8 dereferenceable(80) %9, ptr noundef %43, ptr noundef nonnull align 8 dereferenceable(24) %45, ptr noundef %49)
  store ptr %50, ptr %4, align 8
  br label %51

51:                                               ; preds = %41, %31, %21, %12
  %52 = load ptr, ptr %4, align 8
  ret ptr %52
}