; Function Attrs: mustprogress nounwind uwtable
define internal fastcc noundef ptr @_ZN4llvm14ImutAVLFactoryINS_16ImutKeyValueInfoIN12_GLOBAL__N_116EquivalenceClassENS_12ImmutableSetIS3_NS_17ImutContainerInfoIS3_EEEEEEE15remove_internalERKS3_PNS_11ImutAVLTreeIS8_EE(ptr noundef nonnull align 8 dereferenceable(80) %0, i64 %.8.val, ptr noundef readonly %1) unnamed_addr #1 align 2 {
  %3 = alloca ptr, align 8
  %.not.i = icmp eq ptr %1, null
  br i1 %.not.i, label %common.ret1, label %4

4:                                                ; preds = %2
  %5 = getelementptr inbounds nuw i8, ptr %1, i64 48
  %6 = getelementptr i8, ptr %1, i64 56
  %.val19 = load i64, ptr %6, align 8
  %7 = icmp eq i64 %.8.val, %.val19
  br i1 %7, label %8, label %17

8:                                                ; preds = %4
  %9 = getelementptr i8, ptr %1, i64 8
  %.val22 = load ptr, ptr %9, align 8
  %10 = getelementptr i8, ptr %1, i64 16
  %.val25 = load ptr, ptr %10, align 8
  call void @llvm.lifetime.start.p0(i64 8, ptr nonnull %3)
  %.not.i.i = icmp eq ptr %.val22, null
  br i1 %.not.i.i, label %_ZN4llvm14ImutAVLFactoryINS_16ImutKeyValueInfoIN12_GLOBAL__N_116EquivalenceClassENS_12ImmutableSetIS3_NS_17ImutContainerInfoIS3_EEEEEEE12combineTreesEPNS_11ImutAVLTreeIS8_EESC_.exit, label %11

11:                                               ; preds = %8
  %.not.i9.i = icmp eq ptr %.val25, null
  br i1 %.not.i9.i, label %_ZN4llvm14ImutAVLFactoryINS_16ImutKeyValueInfoIN12_GLOBAL__N_116EquivalenceClassENS_12ImmutableSetIS3_NS_17ImutContainerInfoIS3_EEEEEEE12combineTreesEPNS_11ImutAVLTreeIS8_EESC_.exit, label %12

12:                                               ; preds = %11
  %13 = call fastcc noundef ptr @_ZN4llvm14ImutAVLFactoryINS_16ImutKeyValueInfoIN12_GLOBAL__N_116EquivalenceClassENS_12ImmutableSetIS3_NS_17ImutContainerInfoIS3_EEEEEEE16removeMinBindingEPNS_11ImutAVLTreeIS8_EERSC_(ptr noundef nonnull align 8 dereferenceable(80) %0, ptr noundef nonnull %.val25, ptr noundef nonnull align 8 dereferenceable(8) %3)
  %14 = load ptr, ptr %3, align 8
  %15 = getelementptr inbounds nuw i8, ptr %14, i64 48
  %16 = tail call fastcc noundef ptr @_ZN4llvm14ImutAVLFactoryINS_16ImutKeyValueInfoIN12_GLOBAL__N_116EquivalenceClassENS_12ImmutableSetIS3_NS_17ImutContainerInfoIS3_EEEEEEE11balanceTreeEPNS_11ImutAVLTreeIS8_EERKSt4pairIS3_S7_ESC_(ptr noundef nonnull align 8 dereferenceable(80) %0, ptr noundef nonnull %.val22, ptr noundef nonnull align 8 dereferenceable(24) %15, ptr noundef %13)
  br label %_ZN4llvm14ImutAVLFactoryINS_16ImutKeyValueInfoIN12_GLOBAL__N_116EquivalenceClassENS_12ImmutableSetIS3_NS_17ImutContainerInfoIS3_EEEEEEE12combineTreesEPNS_11ImutAVLTreeIS8_EESC_.exit

_ZN4llvm14ImutAVLFactoryINS_16ImutKeyValueInfoIN12_GLOBAL__N_116EquivalenceClassENS_12ImmutableSetIS3_NS_17ImutContainerInfoIS3_EEEEEEE12combineTreesEPNS_11ImutAVLTreeIS8_EESC_.exit: ; preds = %8, %11, %12
  %.0.i = phi ptr [ %16, %12 ], [ %.val25, %8 ], [ %.val22, %11 ]
  call void @llvm.lifetime.end.p0(i64 8, ptr nonnull %3)
  br label %common.ret1

17:                                               ; preds = %4
  %18 = icmp ult i64 %.8.val, %.val19
  %19 = getelementptr i8, ptr %1, i64 8
  %.val23 = load ptr, ptr %19, align 8
  br i1 %18, label %20, label %24

common.ret1:                                      ; preds = %2, %_ZN4llvm14ImutAVLFactoryINS_16ImutKeyValueInfoIN12_GLOBAL__N_116EquivalenceClassENS_12ImmutableSetIS3_NS_17ImutContainerInfoIS3_EEEEEEE12combineTreesEPNS_11ImutAVLTreeIS8_EESC_.exit, %24, %20
  %common.ret1.op = phi ptr [ %23, %20 ], [ %27, %24 ], [ %.0.i, %_ZN4llvm14ImutAVLFactoryINS_16ImutKeyValueInfoIN12_GLOBAL__N_116EquivalenceClassENS_12ImmutableSetIS3_NS_17ImutContainerInfoIS3_EEEEEEE12combineTreesEPNS_11ImutAVLTreeIS8_EESC_.exit ], [ null, %2 ]
  ret ptr %common.ret1.op

20:                                               ; preds = %17
  %21 = tail call fastcc noundef ptr @_ZN4llvm14ImutAVLFactoryINS_16ImutKeyValueInfoIN12_GLOBAL__N_116EquivalenceClassENS_12ImmutableSetIS3_NS_17ImutContainerInfoIS3_EEEEEEE15remove_internalERKS3_PNS_11ImutAVLTreeIS8_EE(ptr noundef nonnull align 8 dereferenceable(80) %0, i64 %.8.val, ptr noundef %.val23)
  %22 = getelementptr i8, ptr %1, i64 16
  %.val26 = load ptr, ptr %22, align 8
  %23 = tail call fastcc noundef ptr @_ZN4llvm14ImutAVLFactoryINS_16ImutKeyValueInfoIN12_GLOBAL__N_116EquivalenceClassENS_12ImmutableSetIS3_NS_17ImutContainerInfoIS3_EEEEEEE11balanceTreeEPNS_11ImutAVLTreeIS8_EERKSt4pairIS3_S7_ESC_(ptr noundef nonnull align 8 dereferenceable(80) %0, ptr noundef %21, ptr noundef nonnull align 8 dereferenceable(24) %5, ptr noundef %.val26)
  br label %common.ret1

24:                                               ; preds = %17
  %25 = getelementptr i8, ptr %1, i64 16
  %.val27 = load ptr, ptr %25, align 8
  %26 = tail call fastcc noundef ptr @_ZN4llvm14ImutAVLFactoryINS_16ImutKeyValueInfoIN12_GLOBAL__N_116EquivalenceClassENS_12ImmutableSetIS3_NS_17ImutContainerInfoIS3_EEEEEEE15remove_internalERKS3_PNS_11ImutAVLTreeIS8_EE(ptr noundef nonnull align 8 dereferenceable(80) %0, i64 %.8.val, ptr noundef %.val27)
  %27 = tail call fastcc noundef ptr @_ZN4llvm14ImutAVLFactoryINS_16ImutKeyValueInfoIN12_GLOBAL__N_116EquivalenceClassENS_12ImmutableSetIS3_NS_17ImutContainerInfoIS3_EEEEEEE11balanceTreeEPNS_11ImutAVLTreeIS8_EERKSt4pairIS3_S7_ESC_(ptr noundef nonnull align 8 dereferenceable(80) %0, ptr noundef %.val23, ptr noundef nonnull align 8 dereferenceable(24) %5, ptr noundef %26)
  br label %common.ret1
}